; Function Attrs: mustprogress nofree norecurse nosync nounwind willreturn memory(argmem: readwrite) uwtable
define dso_local void @Curl_ssl_easy_config_init(ptr noundef captures(none) %0) local_unnamed_addr #0 {
  %2 = getelementptr inbounds nuw i8, ptr %0, i64 1272
  %3 = getelementptr inbounds nuw i8, ptr %0, i64 1377
  %4 = load i8, ptr %3, align 1
  %5 = or i8 %4, 11
  store i8 %5, ptr %3, align 1
  %6 = getelementptr inbounds nuw i8, ptr %0, i64 1456
  tail call void @llvm.memcpy.p0.p0.i64(ptr noundef nonnull align 8 dereferenceable(184) %6, ptr noundef nonnull align 8 dereferenceable(184) %2, i64 184, i1 false)
  ret void
}